target datalayout = "e-m:e-p270:32:32-p271:32:32-p272:64:64-i64:64-i128:128-f80:128-n8:16:32:64-S128"
target triple = "x86_64-pc-linux-gnu"

@.str.16 = private unnamed_addr constant [67 x i8] c"The WAL segment size must be a power of two between 1 MB and 1 GB.\00", align 1
@GUC_check_errdetail_string = external global ptr, align 8

; Function Attrs: nounwind uwtable
define dso_local zeroext i1 @check_wal_segment_size(ptr noundef %0, ptr noundef %1, i32 noundef %2) #0 {
  %4 = alloca i1, align 1
  %5 = alloca ptr, align 8
  %6 = alloca ptr, align 8
  %7 = alloca i32, align 4
  store ptr %0, ptr %5, align 8
  store ptr %1, ptr %6, align 8
  store i32 %2, ptr %7, align 4
  %8 = load ptr, ptr %5, align 8
  %9 = load i32, ptr %8, align 4
  %10 = icmp sgt i32 %9, 0
  br i1 %10, label %11, label %27

11:                                               ; preds = %3
  %12 = load ptr, ptr %5, align 8
  %13 = load i32, ptr %12, align 4
  %14 = load ptr, ptr %5, align 8
  %15 = load i32, ptr %14, align 4
  %16 = sub i32 %15, 1
  %17 = and i32 %13, %16
  %18 = icmp eq i32 %17, 0
  br i1 %18, label %19, label %27

19:                                               ; preds = %11
  %20 = load ptr, ptr %5, align 8
  %21 = load i32, ptr %20, align 4
  %22 = icmp sge i32 %21, 1048576
  br i1 %22, label %23, label %27

23:                                               ; preds = %19
  %24 = load ptr, ptr %5, align 8
  %25 = load i32, ptr %24, align 4
  %26 = icmp sle i32 %25, 1073741824
  br i1 %26, label %31, label %27

27:                                               ; preds = %23, %19, %11, %3
  %28 = call ptr @__errno_location() #18
  %29 = load i32, ptr %28, align 4
  call void @pre_format_elog_string(i32 noundef %29, ptr noundef null)
  %30 = call ptr (ptr, ...) @format_elog_string(ptr noundef @.str.16)
  store ptr %30, ptr @GUC_check_errdetail_string, align 8
  store i1 false, ptr %4, align 1
  br label %32

31:                                               ; preds = %23
  store i1 true, ptr %4, align 1
  br label %32

32:                                               ; preds = %31, %27
  %33 = load i1, ptr %4, align 1
  ret i1 %33
}