; Function Attrs: nounwind uwtable
define dso_local noundef zeroext i1 @check_wal_segment_size(ptr noundef readonly captures(none) %0, ptr noundef readnone captures(none) %1, i32 noundef %2) local_unnamed_addr #0 {
  %4 = load i32, ptr %0, align 4
  %5 = tail call range(i32 1, 32) i32 @llvm.ctpop.i32(i32 %4)
  %6 = icmp samesign ult i32 %5, 2
  %7 = add i32 %4, -1048576
  %8 = icmp ult i32 %7, 1072693249
  %or.cond9 = select i1 %8, i1 %6, i1 false
  br i1 %or.cond9, label %13, label %9

9:                                                ; preds = %3
  %10 = tail call ptr @__errno_location() #28
  %11 = load i32, ptr %10, align 4
  tail call void @pre_format_elog_string(i32 noundef %11, ptr noundef null) #26
  %12 = tail call ptr (ptr, ...) @format_elog_string(ptr noundef nonnull @.str.16) #26
  store ptr %12, ptr @GUC_check_errdetail_string, align 8
  br label %13

13:                                               ; preds = %3, %9
  ret i1 %or.cond9
}